target datalayout = "e-m:e-p270:32:32-p271:32:32-p272:64:64-i64:64-i128:128-f80:128-n8:16:32:64-S128"
target triple = "x86_64-unknown-linux-gnu"

%struct.dsa_st = type { i64, ptr, ptr, ptr, ptr, ptr, ptr, ptr, i32, %union.crypto_mutex_st, ptr, i32, %struct.crypto_ex_data_st }
%union.crypto_mutex_st = type { double, [48 x i8] }
%struct.crypto_ex_data_st = type { ptr }
%struct.bignum_st = type { ptr, i32, i32, i32, i32 }
%struct.DSA_SIG_st = type { ptr, ptr }

@.str = private unnamed_addr constant [120 x i8] c"generated/home/dtcxzyw/WorkSpace/Projects/compilers/llvm-opt-benchmark/bench/libquic/libquic/boringssl/crypto/dsa/dsa.c\00", align 1

; Function Attrs: nounwind uwtable
define hidden ptr @DSA_SIG_new() #0 {
entry:
  %retval = alloca ptr, align 8
  %sig = alloca ptr, align 8
  %call = call noalias ptr @malloc(i64 noundef 16) #7
  store ptr %call, ptr %sig, align 8
  %0 = load ptr, ptr %sig, align 8
  %tobool = icmp ne ptr %0, null
  br i1 %tobool, label %if.end, label %if.then

if.then:                                          ; preds = %entry
  store ptr null, ptr %retval, align 8
  br label %return

if.end:                                           ; preds = %entry
  %1 = load ptr, ptr %sig, align 8
  %r = getelementptr inbounds %struct.DSA_SIG_st, ptr %1, i32 0, i32 0
  store ptr null, ptr %r, align 8
  %2 = load ptr, ptr %sig, align 8
  %s = getelementptr inbounds %struct.DSA_SIG_st, ptr %2, i32 0, i32 1
  store ptr null, ptr %s, align 8
  %3 = load ptr, ptr %sig, align 8
  store ptr %3, ptr %retval, align 8
  br label %return

return:                                           ; preds = %if.end, %if.then
  %4 = load ptr, ptr %retval, align 8
  ret ptr %4
}

; Function Attrs: nounwind uwtable
define hidden ptr @DSA_do_sign(ptr noundef %digest, i64 noundef %digest_len, ptr noundef %dsa) #0 {
entry:
  %digest.addr = alloca ptr, align 8
  %digest_len.addr = alloca i64, align 8
  %dsa.addr = alloca ptr, align 8
  %kinv = alloca ptr, align 8
  %r = alloca ptr, align 8
  %s = alloca ptr, align 8
  %m = alloca %struct.bignum_st, align 8
  %xr = alloca %struct.bignum_st, align 8
  %ctx = alloca ptr, align 8
  %reason = alloca i32, align 4
  %ret = alloca ptr, align 8
  %noredo = alloca i32, align 4
  store ptr %digest, ptr %digest.addr, align 8
  store i64 %digest_len, ptr %digest_len.addr, align 8
  store ptr %dsa, ptr %dsa.addr, align 8
  store ptr null, ptr %kinv, align 8
  store ptr null, ptr %r, align 8
  store ptr null, ptr %s, align 8
  store ptr null, ptr %ctx, align 8
  store i32 3, ptr %reason, align 4
  store ptr null, ptr %ret, align 8
  store i32 0, ptr %noredo, align 4
  call void @BN_init(ptr noundef %m)
  call void @BN_init(ptr noundef %xr)
  %0 = load ptr, ptr %dsa.addr, align 8
  %p = getelementptr inbounds %struct.dsa_st, ptr %0, i32 0, i32 1
  %1 = load ptr, ptr %p, align 8
  %tobool = icmp ne ptr %1, null
  br i1 %tobool, label %lor.lhs.false, label %if.then

lor.lhs.false:                                    ; preds = %entry
  %2 = load ptr, ptr %dsa.addr, align 8
  %q = getelementptr inbounds %struct.dsa_st, ptr %2, i32 0, i32 2
  %3 = load ptr, ptr %q, align 8
  %tobool1 = icmp ne ptr %3, null
  br i1 %tobool1, label %lor.lhs.false2, label %if.then

lor.lhs.false2:                                   ; preds = %lor.lhs.false
  %4 = load ptr, ptr %dsa.addr, align 8
  %g = getelementptr inbounds %struct.dsa_st, ptr %4, i32 0, i32 3
  %5 = load ptr, ptr %g, align 8
  %tobool3 = icmp ne ptr %5, null
  br i1 %tobool3, label %if.end, label %if.then

if.then:                                          ; preds = %lor.lhs.false2, %lor.lhs.false, %entry
  store i32 101, ptr %reason, align 4
  br label %err

if.end:                                           ; preds = %lor.lhs.false2
  %call = call ptr @BN_new()
  store ptr %call, ptr %s, align 8
  %6 = load ptr, ptr %s, align 8
  %cmp = icmp eq ptr %6, null
  br i1 %cmp, label %if.then4, label %if.end5

if.then4:                                         ; preds = %if.end
  br label %err

if.end5:                                          ; preds = %if.end
  %call6 = call ptr @BN_CTX_new()
  store ptr %call6, ptr %ctx, align 8
  %7 = load ptr, ptr %ctx, align 8
  %cmp7 = icmp eq ptr %7, null
  br i1 %cmp7, label %if.then8, label %if.end9

if.then8:                                         ; preds = %if.end5
  br label %err

if.end9:                                          ; preds = %if.end5
  br label %redo

redo:                                             ; preds = %if.end72, %if.end9
  %8 = load ptr, ptr %dsa.addr, align 8
  %kinv10 = getelementptr inbounds %struct.dsa_st, ptr %8, i32 0, i32 6
  %9 = load ptr, ptr %kinv10, align 8
  %cmp11 = icmp eq ptr %9, null
  br i1 %cmp11, label %if.then15, label %lor.lhs.false12

lor.lhs.false12:                                  ; preds = %redo
  %10 = load ptr, ptr %dsa.addr, align 8
  %r13 = getelementptr inbounds %struct.dsa_st, ptr %10, i32 0, i32 7
  %11 = load ptr, ptr %r13, align 8
  %cmp14 = icmp eq ptr %11, null
  br i1 %cmp14, label %if.then15, label %if.else

if.then15:                                        ; preds = %lor.lhs.false12, %redo
  %12 = load ptr, ptr %dsa.addr, align 8
  %13 = load ptr, ptr %ctx, align 8
  %call16 = call i32 @DSA_sign_setup(ptr noundef %12, ptr noundef %13, ptr noundef %kinv, ptr noundef %r)
  %tobool17 = icmp ne i32 %call16, 0
  br i1 %tobool17, label %if.end19, label %if.then18

if.then18:                                        ; preds = %if.then15
  br label %err

if.end19:                                         ; preds = %if.then15
  br label %if.end24

if.else:                                          ; preds = %lor.lhs.false12
  %14 = load ptr, ptr %dsa.addr, align 8
  %kinv20 = getelementptr inbounds %struct.dsa_st, ptr %14, i32 0, i32 6
  %15 = load ptr, ptr %kinv20, align 8
  store ptr %15, ptr %kinv, align 8
  %16 = load ptr, ptr %dsa.addr, align 8
  %kinv21 = getelementptr inbounds %struct.dsa_st, ptr %16, i32 0, i32 6
  store ptr null, ptr %kinv21, align 8
  %17 = load ptr, ptr %dsa.addr, align 8
  %r22 = getelementptr inbounds %struct.dsa_st, ptr %17, i32 0, i32 7
  %18 = load ptr, ptr %r22, align 8
  store ptr %18, ptr %r, align 8
  %19 = load ptr, ptr %dsa.addr, align 8
  %r23 = getelementptr inbounds %struct.dsa_st, ptr %19, i32 0, i32 7
  store ptr null, ptr %r23, align 8
  store i32 1, ptr %noredo, align 4
  br label %if.end24

if.end24:                                         ; preds = %if.else, %if.end19
  %20 = load i64, ptr %digest_len.addr, align 8
  %21 = load ptr, ptr %dsa.addr, align 8
  %q25 = getelementptr inbounds %struct.dsa_st, ptr %21, i32 0, i32 2
  %22 = load ptr, ptr %q25, align 8
  %call26 = call i32 @BN_num_bytes(ptr noundef %22)
  %conv = zext i32 %call26 to i64
  %cmp27 = icmp ugt i64 %20, %conv
  br i1 %cmp27, label %if.then29, label %if.end33

if.then29:                                        ; preds = %if.end24
  %23 = load ptr, ptr %dsa.addr, align 8
  %q30 = getelementptr inbounds %struct.dsa_st, ptr %23, i32 0, i32 2
  %24 = load ptr, ptr %q30, align 8
  %call31 = call i32 @BN_num_bytes(ptr noundef %24)
  %conv32 = zext i32 %call31 to i64
  store i64 %conv32, ptr %digest_len.addr, align 8
  br label %if.end33

if.end33:                                         ; preds = %if.then29, %if.end24
  %25 = load ptr, ptr %digest.addr, align 8
  %26 = load i64, ptr %digest_len.addr, align 8
  %call34 = call ptr @BN_bin2bn(ptr noundef %25, i64 noundef %26, ptr noundef %m)
  %cmp35 = icmp eq ptr %call34, null
  br i1 %cmp35, label %if.then37, label %if.end38

if.then37:                                        ; preds = %if.end33
  br label %err

if.end38:                                         ; preds = %if.end33
  %27 = load ptr, ptr %dsa.addr, align 8
  %priv_key = getelementptr inbounds %struct.dsa_st, ptr %27, i32 0, i32 5
  %28 = load ptr, ptr %priv_key, align 8
  %29 = load ptr, ptr %r, align 8
  %30 = load ptr, ptr %dsa.addr, align 8
  %q39 = getelementptr inbounds %struct.dsa_st, ptr %30, i32 0, i32 2
  %31 = load ptr, ptr %q39, align 8
  %32 = load ptr, ptr %ctx, align 8
  %call40 = call i32 @BN_mod_mul(ptr noundef %xr, ptr noundef %28, ptr noundef %29, ptr noundef %31, ptr noundef %32)
  %tobool41 = icmp ne i32 %call40, 0
  br i1 %tobool41, label %if.end43, label %if.then42

if.then42:                                        ; preds = %if.end38
  br label %err

if.end43:                                         ; preds = %if.end38
  %33 = load ptr, ptr %s, align 8
  %call44 = call i32 @BN_add(ptr noundef %33, ptr noundef %xr, ptr noundef %m)
  %tobool45 = icmp ne i32 %call44, 0
  br i1 %tobool45, label %if.end47, label %if.then46

if.then46:                                        ; preds = %if.end43
  br label %err

if.end47:                                         ; preds = %if.end43
  %34 = load ptr, ptr %s, align 8
  %35 = load ptr, ptr %dsa.addr, align 8
  %q48 = getelementptr inbounds %struct.dsa_st, ptr %35, i32 0, i32 2
  %36 = load ptr, ptr %q48, align 8
  %call49 = call i32 @BN_cmp(ptr noundef %34, ptr noundef %36)
  %cmp50 = icmp sgt i32 %call49, 0
  br i1 %cmp50, label %if.then52, label %if.end58

if.then52:                                        ; preds = %if.end47
  %37 = load ptr, ptr %s, align 8
  %38 = load ptr, ptr %s, align 8
  %39 = load ptr, ptr %dsa.addr, align 8
  %q53 = getelementptr inbounds %struct.dsa_st, ptr %39, i32 0, i32 2
  %40 = load ptr, ptr %q53, align 8
  %call54 = call i32 @BN_sub(ptr noundef %37, ptr noundef %38, ptr noundef %40)
  %tobool55 = icmp ne i32 %call54, 0
  br i1 %tobool55, label %if.end57, label %if.then56

if.then56:                                        ; preds = %if.then52
  br label %err

if.end57:                                         ; preds = %if.then52
  br label %if.end58

if.end58:                                         ; preds = %if.end57, %if.end47
  %41 = load ptr, ptr %s, align 8
  %42 = load ptr, ptr %s, align 8
  %43 = load ptr, ptr %kinv, align 8
  %44 = load ptr, ptr %dsa.addr, align 8
  %q59 = getelementptr inbounds %struct.dsa_st, ptr %44, i32 0, i32 2
  %45 = load ptr, ptr %q59, align 8
  %46 = load ptr, ptr %ctx, align 8
  %call60 = call i32 @BN_mod_mul(ptr noundef %41, ptr noundef %42, ptr noundef %43, ptr noundef %45, ptr noundef %46)
  %tobool61 = icmp ne i32 %call60, 0
  br i1 %tobool61, label %if.end63, label %if.then62

if.then62:                                        ; preds = %if.end58
  br label %err

if.end63:                                         ; preds = %if.end58
  %47 = load ptr, ptr %r, align 8
  %call64 = call i32 @BN_is_zero(ptr noundef %47)
  %tobool65 = icmp ne i32 %call64, 0
  br i1 %tobool65, label %if.then69, label %lor.lhs.false66

lor.lhs.false66:                                  ; preds = %if.end63
  %48 = load ptr, ptr %s, align 8
  %call67 = call i32 @BN_is_zero(ptr noundef %48)
  %tobool68 = icmp ne i32 %call67, 0
  br i1 %tobool68, label %if.then69, label %if.end73

if.then69:                                        ; preds = %lor.lhs.false66, %if.end63
  %49 = load i32, ptr %noredo, align 4
  %tobool70 = icmp ne i32 %49, 0
  br i1 %tobool70, label %if.then71, label %if.end72

if.then71:                                        ; preds = %if.then69
  store i32 103, ptr %reason, align 4
  br label %err

if.end72:                                         ; preds = %if.then69
  br label %redo

if.end73:                                         ; preds = %lor.lhs.false66
  %call74 = call ptr @DSA_SIG_new()
  store ptr %call74, ptr %ret, align 8
  %50 = load ptr, ptr %ret, align 8
  %cmp75 = icmp eq ptr %50, null
  br i1 %cmp75, label %if.then77, label %if.end78

if.then77:                                        ; preds = %if.end73
  br label %err

if.end78:                                         ; preds = %if.end73
  %51 = load ptr, ptr %r, align 8
  %52 = load ptr, ptr %ret, align 8
  %r79 = getelementptr inbounds %struct.DSA_SIG_st, ptr %52, i32 0, i32 0
  store ptr %51, ptr %r79, align 8
  %53 = load ptr, ptr %s, align 8
  %54 = load ptr, ptr %ret, align 8
  %s80 = getelementptr inbounds %struct.DSA_SIG_st, ptr %54, i32 0, i32 1
  store ptr %53, ptr %s80, align 8
  br label %err

err:                                              ; preds = %if.end78, %if.then77, %if.then71, %if.then62, %if.then56, %if.then46, %if.then42, %if.then37, %if.then18, %if.then8, %if.then4, %if.then
  %55 = load ptr, ptr %ret, align 8
  %cmp81 = icmp eq ptr %55, null
  br i1 %cmp81, label %if.then83, label %if.end84

if.then83:                                        ; preds = %err
  %56 = load i32, ptr %reason, align 4
  call void @ERR_put_error(i32 noundef 10, i32 noundef 0, i32 noundef %56, ptr noundef @.str, i32 noundef 569)
  %57 = load ptr, ptr %r, align 8
  call void @BN_free(ptr noundef %57)
  %58 = load ptr, ptr %s, align 8
  call void @BN_free(ptr noundef %58)
  br label %if.end84

if.end84:                                         ; preds = %if.then83, %err
  %59 = load ptr, ptr %ctx, align 8
  call void @BN_CTX_free(ptr noundef %59)
  call void @BN_clear_free(ptr noundef %m)
  call void @BN_clear_free(ptr noundef %xr)
  %60 = load ptr, ptr %kinv, align 8
  call void @BN_clear_free(ptr noundef %60)
  %61 = load ptr, ptr %ret, align 8
  ret ptr %61
}