; Function Attrs: nounwind uwtable
define hidden noalias noundef ptr @DSA_do_sign(ptr noundef %digest, i64 noundef %digest_len, ptr noundef %dsa) local_unnamed_addr #0 {
entry:
  %kinv = alloca ptr, align 8
  %r = alloca ptr, align 8
  %m = alloca %struct.bignum_st, align 8
  %xr = alloca %struct.bignum_st, align 8
  store ptr null, ptr %kinv, align 8
  store ptr null, ptr %r, align 8
  call void @BN_init(ptr noundef nonnull %m) #8
  call void @BN_init(ptr noundef nonnull %xr) #8
  %p = getelementptr inbounds nuw i8, ptr %dsa, i64 8
  %0 = load ptr, ptr %p, align 8
  %tobool.not = icmp eq ptr %0, null
  br i1 %tobool.not, label %if.then83, label %lor.lhs.false

lor.lhs.false:                                    ; preds = %entry
  %q = getelementptr inbounds nuw i8, ptr %dsa, i64 16
  %1 = load ptr, ptr %q, align 8
  %tobool1.not = icmp eq ptr %1, null
  br i1 %tobool1.not, label %if.then83, label %lor.lhs.false2

lor.lhs.false2:                                   ; preds = %lor.lhs.false
  %g = getelementptr inbounds nuw i8, ptr %dsa, i64 24
  %2 = load ptr, ptr %g, align 8
  %tobool3.not = icmp eq ptr %2, null
  br i1 %tobool3.not, label %if.then83, label %if.end

if.end:                                           ; preds = %lor.lhs.false2
  %call = call ptr @BN_new() #8
  %cmp = icmp eq ptr %call, null
  br i1 %cmp, label %if.then83, label %if.end5

if.end5:                                          ; preds = %if.end
  %call6 = call ptr @BN_CTX_new() #8
  %cmp7 = icmp eq ptr %call6, null
  br i1 %cmp7, label %if.then83, label %redo.preheader

redo.preheader:                                   ; preds = %if.end5
  %kinv10 = getelementptr inbounds nuw i8, ptr %dsa, i64 48
  %r13 = getelementptr inbounds nuw i8, ptr %dsa, i64 56
  %priv_key = getelementptr inbounds nuw i8, ptr %dsa, i64 40
  br label %redo

redo:                                             ; preds = %redo.preheader, %if.then69
  %digest_len.addr.0 = phi i64 [ %digest_len.addr.1, %if.then69 ], [ %digest_len, %redo.preheader ]
  %3 = load ptr, ptr %kinv10, align 8
  %cmp11 = icmp eq ptr %3, null
  br i1 %cmp11, label %if.then15, label %lor.lhs.false12

lor.lhs.false12:                                  ; preds = %redo
  %4 = load ptr, ptr %r13, align 8
  %cmp14 = icmp eq ptr %4, null
  br i1 %cmp14, label %if.then15, label %if.else

if.then15:                                        ; preds = %lor.lhs.false12, %redo
  %call16 = call i32 @DSA_sign_setup(ptr noundef nonnull %dsa, ptr noundef nonnull %call6, ptr noundef nonnull %kinv, ptr noundef nonnull %r)
  %tobool17.not = icmp eq i32 %call16, 0
  br i1 %tobool17.not, label %if.then15.if.then83.loopexit_crit_edge, label %if.end24

if.then15.if.then83.loopexit_crit_edge:           ; preds = %if.then15
  %.pre.pre = load ptr, ptr %r, align 8
  br label %if.then83

if.else:                                          ; preds = %lor.lhs.false12
  store ptr %3, ptr %kinv, align 8
  store ptr null, ptr %kinv10, align 8
  store ptr %4, ptr %r, align 8
  store ptr null, ptr %r13, align 8
  br label %if.end24

if.end24:                                         ; preds = %if.then15, %if.else
  %tobool70.not = phi i1 [ true, %if.then15 ], [ false, %if.else ]
  %5 = load ptr, ptr %q, align 8
  %call26 = call i32 @BN_num_bytes(ptr noundef %5) #8
  %conv = zext i32 %call26 to i64
  %cmp27 = icmp ugt i64 %digest_len.addr.0, %conv
  br i1 %cmp27, label %if.then29, label %if.end33

if.then29:                                        ; preds = %if.end24
  %6 = load ptr, ptr %q, align 8
  %call31 = call i32 @BN_num_bytes(ptr noundef %6) #8
  %conv32 = zext i32 %call31 to i64
  br label %if.end33

if.end33:                                         ; preds = %if.then29, %if.end24
  %digest_len.addr.1 = phi i64 [ %conv32, %if.then29 ], [ %digest_len.addr.0, %if.end24 ]
  %call34 = call ptr @BN_bin2bn(ptr noundef %digest, i64 noundef %digest_len.addr.1, ptr noundef nonnull %m) #8
  %cmp35 = icmp eq ptr %call34, null
  %.pre.pre46 = load ptr, ptr %r, align 8
  br i1 %cmp35, label %if.then83, label %if.end38

if.end38:                                         ; preds = %if.end33
  %7 = load ptr, ptr %priv_key, align 8
  %8 = load ptr, ptr %q, align 8
  %call40 = call i32 @BN_mod_mul(ptr noundef nonnull %xr, ptr noundef %7, ptr noundef %.pre.pre46, ptr noundef %8, ptr noundef nonnull %call6) #8
  %tobool41.not = icmp eq i32 %call40, 0
  br i1 %tobool41.not, label %if.then83, label %if.end43

if.end43:                                         ; preds = %if.end38
  %call44 = call i32 @BN_add(ptr noundef nonnull %call, ptr noundef nonnull %xr, ptr noundef nonnull %m) #8
  %tobool45.not = icmp eq i32 %call44, 0
  br i1 %tobool45.not, label %if.then83, label %if.end47

if.end47:                                         ; preds = %if.end43
  %9 = load ptr, ptr %q, align 8
  %call49 = call i32 @BN_cmp(ptr noundef nonnull %call, ptr noundef %9) #8
  %cmp50 = icmp sgt i32 %call49, 0
  br i1 %cmp50, label %if.then52, label %if.end58

if.then52:                                        ; preds = %if.end47
  %10 = load ptr, ptr %q, align 8
  %call54 = call i32 @BN_sub(ptr noundef nonnull %call, ptr noundef nonnull %call, ptr noundef %10) #8
  %tobool55.not = icmp eq i32 %call54, 0
  br i1 %tobool55.not, label %if.then83, label %if.end58

if.end58:                                         ; preds = %if.then52, %if.end47
  %11 = load ptr, ptr %kinv, align 8
  %12 = load ptr, ptr %q, align 8
  %call60 = call i32 @BN_mod_mul(ptr noundef nonnull %call, ptr noundef nonnull %call, ptr noundef %11, ptr noundef %12, ptr noundef nonnull %call6) #8
  %tobool61.not = icmp eq i32 %call60, 0
  br i1 %tobool61.not, label %if.then83, label %if.end63

if.end63:                                         ; preds = %if.end58
  %call64 = call i32 @BN_is_zero(ptr noundef %.pre.pre46) #8
  %tobool65.not = icmp eq i32 %call64, 0
  br i1 %tobool65.not, label %lor.lhs.false66, label %if.then69

lor.lhs.false66:                                  ; preds = %if.end63
  %call67 = call i32 @BN_is_zero(ptr noundef nonnull %call) #8
  %tobool68.not = icmp eq i32 %call67, 0
  br i1 %tobool68.not, label %if.end73, label %if.then69

if.then69:                                        ; preds = %lor.lhs.false66, %if.end63
  br i1 %tobool70.not, label %redo, label %if.then83

if.end73:                                         ; preds = %lor.lhs.false66
  %calloc.i = call dereferenceable_or_null(16) ptr @calloc(i64 1, i64 16)
  %tobool.not.i = icmp eq ptr %calloc.i, null
  br i1 %tobool.not.i, label %if.then83, label %err

err:                                              ; preds = %if.end73
  store ptr %.pre.pre46, ptr %calloc.i, align 8
  %s80 = getelementptr inbounds nuw i8, ptr %calloc.i, i64 8
  store ptr %call, ptr %s80, align 8
  br label %if.end84

if.then83:                                        ; preds = %if.end33, %if.end58, %if.then52, %if.end43, %if.end38, %if.then69, %if.then15.if.then83.loopexit_crit_edge, %if.end, %if.end5, %if.end73, %lor.lhs.false2, %lor.lhs.false, %entry
  %13 = phi ptr [ null, %entry ], [ null, %lor.lhs.false ], [ null, %lor.lhs.false2 ], [ %.pre.pre46, %if.end73 ], [ null, %if.end5 ], [ null, %if.end ], [ %.pre.pre, %if.then15.if.then83.loopexit_crit_edge ], [ %.pre.pre46, %if.then69 ], [ %.pre.pre46, %if.end38 ], [ %.pre.pre46, %if.end43 ], [ %.pre.pre46, %if.then52 ], [ %.pre.pre46, %if.end58 ], [ %.pre.pre46, %if.end33 ]
  %s.0.ph = phi ptr [ null, %entry ], [ null, %lor.lhs.false ], [ null, %lor.lhs.false2 ], [ %call, %if.end73 ], [ %call, %if.end5 ], [ null, %if.end ], [ %call, %if.then15.if.then83.loopexit_crit_edge ], [ %call, %if.then69 ], [ %call, %if.end38 ], [ %call, %if.end43 ], [ %call, %if.then52 ], [ %call, %if.end58 ], [ %call, %if.end33 ]
  %ctx.0.ph = phi ptr [ null, %entry ], [ null, %lor.lhs.false ], [ null, %lor.lhs.false2 ], [ %call6, %if.end73 ], [ null, %if.end5 ], [ null, %if.end ], [ %call6, %if.then15.if.then83.loopexit_crit_edge ], [ %call6, %if.then69 ], [ %call6, %if.end38 ], [ %call6, %if.end43 ], [ %call6, %if.then52 ], [ %call6, %if.end58 ], [ %call6, %if.end33 ]
  %reason.0.ph = phi i32 [ 101, %entry ], [ 101, %lor.lhs.false ], [ 101, %lor.lhs.false2 ], [ 3, %if.end73 ], [ 3, %if.end5 ], [ 3, %if.end ], [ 3, %if.then15.if.then83.loopexit_crit_edge ], [ 3, %if.end33 ], [ 3, %if.end58 ], [ 3, %if.then52 ], [ 3, %if.end43 ], [ 3, %if.end38 ], [ 103, %if.then69 ]
  call void @ERR_put_error(i32 noundef 10, i32 noundef 0, i32 noundef %reason.0.ph, ptr noundef nonnull @.str, i32 noundef 569) #8
  call void @BN_free(ptr noundef %13) #8
  call void @BN_free(ptr noundef %s.0.ph) #8
  br label %if.end84

if.end84:                                         ; preds = %err, %if.then83
  %ret.044 = phi ptr [ null, %if.then83 ], [ %calloc.i, %err ]
  %ctx.041 = phi ptr [ %ctx.0.ph, %if.then83 ], [ %call6, %err ]
  call void @BN_CTX_free(ptr noundef %ctx.041) #8
  call void @BN_clear_free(ptr noundef nonnull %m) #8
  call void @BN_clear_free(ptr noundef nonnull %xr) #8
  %14 = load ptr, ptr %kinv, align 8
  call void @BN_clear_free(ptr noundef %14) #8
  ret ptr %ret.044
}